
TEST.exe:     file format elf32-littleriscv


Disassembly of section .text:

80000000 <_start>:
80000000:	70040497          	auipc	s1,0x70040
80000004:	00048493          	mv	s1,s1
80000008:	04000913          	li	s2,64
8000000c:	4985                	li	s3,1
8000000e:	2011                	jal	80000012 <solveBoard>
80000010:	a281                	j	80000150 <exit>

80000012 <solveBoard>:
80000012:	1131                	addi	sp,sp,-20
80000014:	c852                	sw	s4,16(sp)
80000016:	c636                	sw	a3,12(sp)
80000018:	c432                	sw	a2,8(sp)
8000001a:	c22e                	sw	a1,4(sp)
8000001c:	c006                	sw	ra,0(sp)
8000001e:	2239                	jal	8000012c <saveTempRegisters>
80000020:	4581                	li	a1,0
80000022:	032902b3          	mul	t0,s2,s2

80000026 <outer>:
80000026:	0455d963          	bge	a1,t0,80000078 <solved>
8000002a:	4601                	li	a2,0
8000002c:	00b48e33          	add	t3,s1,a1

80000030 <inner>:
80000030:	05265263          	bge	a2,s2,80000074 <innerEnd>
80000034:	00ce0a33          	add	s4,t3,a2
80000038:	000a0e83          	lb	t4,0(s4)
8000003c:	000e8463          	beqz	t4,80000044 <anotherLoop>
80000040:	0605                	addi	a2,a2,1
80000042:	b7fd                	j	80000030 <inner>

80000044 <anotherLoop>:
80000044:	4685                	li	a3,1

80000046 <looop>:
80000046:	00d94e63          	blt	s2,a3,80000062 <reject>
8000004a:	2081                	jal	8000008a <isSafe>
8000004c:	01351963          	bne	a0,s3,8000005e <nope>
80000050:	00da0023          	sb	a3,0(s4)
80000054:	3f7d                	jal	80000012 <solveBoard>
80000056:	03350163          	beq	a0,s3,80000078 <solved>
8000005a:	000a0023          	sb	zero,0(s4)

8000005e <nope>:
8000005e:	0685                	addi	a3,a3,1
80000060:	b7dd                	j	80000046 <looop>

80000062 <reject>:
80000062:	28f1                	jal	8000013e <restoreTempRegisters>
80000064:	4082                	lw	ra,0(sp)
80000066:	4592                	lw	a1,4(sp)
80000068:	4622                	lw	a2,8(sp)
8000006a:	46b2                	lw	a3,12(sp)
8000006c:	4a42                	lw	s4,16(sp)
8000006e:	0151                	addi	sp,sp,20
80000070:	4501                	li	a0,0
80000072:	8082                	ret

80000074 <innerEnd>:
80000074:	95ca                	add	a1,a1,s2
80000076:	bf45                	j	80000026 <outer>

80000078 <solved>:
80000078:	20d9                	jal	8000013e <restoreTempRegisters>
8000007a:	4082                	lw	ra,0(sp)
8000007c:	4592                	lw	a1,4(sp)
8000007e:	4622                	lw	a2,8(sp)
80000080:	46b2                	lw	a3,12(sp)
80000082:	4a42                	lw	s4,16(sp)
80000084:	0151                	addi	sp,sp,20
80000086:	4505                	li	a0,1
80000088:	8082                	ret

8000008a <isSafe>:
8000008a:	1161                	addi	sp,sp,-8
8000008c:	c252                	sw	s4,4(sp)
8000008e:	c006                	sw	ra,0(sp)
80000090:	2871                	jal	8000012c <saveTempRegisters>
80000092:	4281                	li	t0,0
80000094:	03290333          	mul	t1,s2,s2

80000098 <colCheck>:
80000098:	0062dc63          	bge	t0,t1,800000b0 <endColCheck>
8000009c:	00c283b3          	add	t2,t0,a2
800000a0:	00938e33          	add	t3,t2,s1
800000a4:	000e0e83          	lb	t4,0(t3)
800000a8:	06de8663          	beq	t4,a3,80000114 <notSafe>
800000ac:	92ca                	add	t0,t0,s2
800000ae:	a011                	j	800000b2 <rowCheck>

800000b0 <endColCheck>:
800000b0:	4281                	li	t0,0

800000b2 <rowCheck>:
800000b2:	0122dc63          	bge	t0,s2,800000ca <endRowCheck>
800000b6:	00b283b3          	add	t2,t0,a1
800000ba:	00938e33          	add	t3,t2,s1
800000be:	000e0e83          	lb	t4,0(t3)
800000c2:	04de8963          	beq	t4,a3,80000114 <notSafe>
800000c6:	0285                	addi	t0,t0,1
800000c8:	bfc1                	j	80000098 <colCheck>

800000ca <endRowCheck>:
800000ca:	42a1                	li	t0,8
800000cc:	0325c333          	div	t1,a1,s2
800000d0:	02536333          	rem	t1,t1,t0
800000d4:	03230333          	mul	t1,t1,s2
800000d8:	40658333          	sub	t1,a1,t1
800000dc:	025663b3          	rem	t2,a2,t0
800000e0:	407603b3          	sub	t2,a2,t2
800000e4:	1c030e13          	addi	t3,t1,448
800000e8:	00138e93          	addi	t4,t2,1

800000ec <outerLoop>:
800000ec:	026e4a63          	blt	t3,t1,80000120 <safe>
800000f0:	00648f33          	add	t5,s1,t1
800000f4:	025663b3          	rem	t2,a2,t0
800000f8:	407603b3          	sub	t2,a2,t2

800000fc <innerLoop>:
800000fc:	007eca63          	blt	t4,t2,80000110 <endInnerLoop>
80000100:	007f0a33          	add	s4,t5,t2
80000104:	000a0f83          	lb	t6,0(s4)
80000108:	00df8663          	beq	t6,a3,80000114 <notSafe>
8000010c:	0385                	addi	t2,t2,1
8000010e:	b7fd                	j	800000fc <innerLoop>

80000110 <endInnerLoop>:
80000110:	934a                	add	t1,t1,s2
80000112:	bfe9                	j	800000ec <outerLoop>

80000114 <notSafe>:
80000114:	4501                	li	a0,0
80000116:	2025                	jal	8000013e <restoreTempRegisters>
80000118:	4082                	lw	ra,0(sp)
8000011a:	4a12                	lw	s4,4(sp)
8000011c:	0121                	addi	sp,sp,8
8000011e:	8082                	ret

80000120 <safe>:
80000120:	4505                	li	a0,1
80000122:	2831                	jal	8000013e <restoreTempRegisters>
80000124:	4082                	lw	ra,0(sp)
80000126:	4a12                	lw	s4,4(sp)
80000128:	0121                	addi	sp,sp,8
8000012a:	8082                	ret

8000012c <saveTempRegisters>:
8000012c:	1111                	addi	sp,sp,-28
8000012e:	cc7e                	sw	t6,24(sp)
80000130:	ca7a                	sw	t5,20(sp)
80000132:	c876                	sw	t4,16(sp)
80000134:	c672                	sw	t3,12(sp)
80000136:	c41e                	sw	t2,8(sp)
80000138:	c21a                	sw	t1,4(sp)
8000013a:	c016                	sw	t0,0(sp)
8000013c:	8082                	ret

8000013e <restoreTempRegisters>:
8000013e:	4282                	lw	t0,0(sp)
80000140:	4312                	lw	t1,4(sp)
80000142:	43a2                	lw	t2,8(sp)
80000144:	4e32                	lw	t3,12(sp)
80000146:	4ec2                	lw	t4,16(sp)
80000148:	4f52                	lw	t5,20(sp)
8000014a:	4fe2                	lw	t6,24(sp)
8000014c:	0171                	addi	sp,sp,28
8000014e:	8082                	ret

80000150 <exit>:
80000150:	4281                	li	t0,0
80000152:	03290333          	mul	t1,s2,s2

80000156 <loop>:
80000156:	00628863          	beq	t0,t1,80000166 <_finish>
8000015a:	005483b3          	add	t2,s1,t0
8000015e:	00038e03          	lb	t3,0(t2)
80000162:	0285                	addi	t0,t0,1
80000164:	bfcd                	j	80000156 <loop>

80000166 <_finish>:
80000166:	d05801b7          	lui	gp,0xd0580
8000016a:	0ff00293          	li	t0,255
8000016e:	00518023          	sb	t0,0(gp) # d0580000 <_end+0x5057fdc2>
80000172:	fe000ae3          	beqz	zero,80000166 <_finish>
80000176:	0001                	nop
80000178:	0001                	nop
8000017a:	0001                	nop
8000017c:	0001                	nop
8000017e:	0001                	nop
80000180:	0001                	nop
80000182:	0001                	nop
80000184:	0001                	nop
80000186:	0001                	nop
80000188:	0001                	nop
8000018a:	0001                	nop
8000018c:	0001                	nop
8000018e:	0001                	nop
80000190:	0001                	nop
80000192:	0001                	nop
80000194:	0001                	nop
80000196:	0001                	nop
80000198:	0001                	nop
8000019a:	0001                	nop
8000019c:	0001                	nop
8000019e:	0001                	nop
800001a0:	0001                	nop
800001a2:	0001                	nop
800001a4:	0001                	nop
800001a6:	0001                	nop
800001a8:	0001                	nop
800001aa:	0001                	nop
800001ac:	0001                	nop
800001ae:	0001                	nop
800001b0:	0001                	nop
800001b2:	0001                	nop
800001b4:	0001                	nop
800001b6:	0001                	nop
800001b8:	0001                	nop
800001ba:	0001                	nop
800001bc:	0001                	nop
800001be:	0001                	nop
800001c0:	0001                	nop
800001c2:	0001                	nop
800001c4:	0001                	nop
800001c6:	0001                	nop
800001c8:	0001                	nop
800001ca:	0001                	nop
800001cc:	0001                	nop
800001ce:	0001                	nop
800001d0:	0001                	nop
800001d2:	0001                	nop
800001d4:	0001                	nop
800001d6:	0001                	nop
800001d8:	0001                	nop
800001da:	0001                	nop
800001dc:	0001                	nop
800001de:	0001                	nop
800001e0:	0001                	nop
800001e2:	0001                	nop
800001e4:	0001                	nop
800001e6:	0001                	nop
800001e8:	0001                	nop
800001ea:	0001                	nop
800001ec:	0001                	nop
800001ee:	0001                	nop
800001f0:	0001                	nop
800001f2:	0001                	nop
800001f4:	0001                	nop
800001f6:	0001                	nop
800001f8:	0001                	nop
800001fa:	0001                	nop
800001fc:	0001                	nop
800001fe:	0001                	nop
80000200:	0001                	nop
80000202:	0001                	nop
80000204:	0001                	nop
80000206:	0001                	nop
80000208:	0001                	nop
8000020a:	0001                	nop
8000020c:	0001                	nop
8000020e:	0001                	nop
80000210:	0001                	nop
80000212:	0001                	nop
80000214:	0001                	nop
80000216:	0001                	nop
80000218:	0001                	nop
8000021a:	0001                	nop
8000021c:	0001                	nop
8000021e:	0001                	nop
80000220:	0001                	nop
80000222:	0001                	nop
80000224:	0001                	nop
80000226:	0001                	nop
80000228:	0001                	nop
8000022a:	0001                	nop
8000022c:	0001                	nop
8000022e:	0001                	nop
80000230:	0001                	nop
80000232:	0001                	nop
80000234:	0001                	nop
80000236:	0001                	nop
80000238:	0001                	nop
8000023a:	0001                	nop
8000023c:	0001                	nop
